target datalayout = "e-m:e-p270:32:32-p271:32:32-p272:64:64-i64:64-i128:128-f80:128-n8:16:32:64-S128"
target triple = "x86_64-pc-linux-gnu"

; Function Attrs: mustprogress nounwind uwtable
define internal noundef signext i8 @_ZN6icu_77L13isASCIIOkBiDiEPKci(ptr noundef %0, i32 noundef %1) #0 {
  %3 = alloca i8, align 1
  %4 = alloca ptr, align 8
  %5 = alloca i32, align 4
  %6 = alloca i32, align 4
  %7 = alloca i32, align 4
  %8 = alloca i32, align 4
  %9 = alloca i8, align 1
  store ptr %0, ptr %4, align 8, !tbaa !17
  store i32 %1, ptr %5, align 4, !tbaa !14
  call void @llvm.lifetime.start.p0(i64 4, ptr %6) #13
  store i32 0, ptr %6, align 4, !tbaa !14
  call void @llvm.lifetime.start.p0(i64 4, ptr %7) #13
  store i32 0, ptr %7, align 4, !tbaa !14
  br label %10

10:                                               ; preds = %108, %2
  %11 = load i32, ptr %7, align 4, !tbaa !14
  %12 = load i32, ptr %5, align 4, !tbaa !14
  %13 = icmp slt i32 %11, %12
  br i1 %13, label %15, label %14

14:                                               ; preds = %10
  store i32 2, ptr %8, align 4
  br label %111

15:                                               ; preds = %10
  call void @llvm.lifetime.start.p0(i64 1, ptr %9) #13
  %16 = load ptr, ptr %4, align 8, !tbaa !17
  %17 = load i32, ptr %7, align 4, !tbaa !14
  %18 = sext i32 %17 to i64
  %19 = getelementptr inbounds i8, ptr %16, i64 %18
  %20 = load i8, ptr %19, align 1, !tbaa !33
  store i8 %20, ptr %9, align 1, !tbaa !33
  %21 = load i8, ptr %9, align 1, !tbaa !33
  %22 = sext i8 %21 to i32
  %23 = icmp eq i32 %22, 46
  br i1 %23, label %24, label %63

24:                                               ; preds = %15
  %25 = load i32, ptr %7, align 4, !tbaa !14
  %26 = load i32, ptr %6, align 4, !tbaa !14
  %27 = icmp sgt i32 %25, %26
  br i1 %27, label %28, label %60

28:                                               ; preds = %24
  %29 = load ptr, ptr %4, align 8, !tbaa !17
  %30 = load i32, ptr %7, align 4, !tbaa !14
  %31 = sub nsw i32 %30, 1
  %32 = sext i32 %31 to i64
  %33 = getelementptr inbounds i8, ptr %29, i64 %32
  %34 = load i8, ptr %33, align 1, !tbaa !33
  store i8 %34, ptr %9, align 1, !tbaa !33
  %35 = load i8, ptr %9, align 1, !tbaa !33
  %36 = sext i8 %35 to i32
  %37 = icmp sle i32 97, %36
  br i1 %37, label %38, label %42

38:                                               ; preds = %28
  %39 = load i8, ptr %9, align 1, !tbaa !33
  %40 = sext i8 %39 to i32
  %41 = icmp sle i32 %40, 122
  br i1 %41, label %59, label %42

42:                                               ; preds = %38, %28
  %43 = load i8, ptr %9, align 1, !tbaa !33
  %44 = sext i8 %43 to i32
  %45 = icmp sle i32 65, %44
  br i1 %45, label %46, label %50

46:                                               ; preds = %42
  %47 = load i8, ptr %9, align 1, !tbaa !33
  %48 = sext i8 %47 to i32
  %49 = icmp sle i32 %48, 90
  br i1 %49, label %59, label %50

50:                                               ; preds = %46, %42
  %51 = load i8, ptr %9, align 1, !tbaa !33
  %52 = sext i8 %51 to i32
  %53 = icmp sle i32 48, %52
  br i1 %53, label %54, label %58

54:                                               ; preds = %50
  %55 = load i8, ptr %9, align 1, !tbaa !33
  %56 = sext i8 %55 to i32
  %57 = icmp sle i32 %56, 57
  br i1 %57, label %59, label %58

58:                                               ; preds = %54, %50
  store i8 0, ptr %3, align 1
  store i32 1, ptr %8, align 4
  br label %105

59:                                               ; preds = %54, %46, %38
  br label %60

60:                                               ; preds = %59, %24
  %61 = load i32, ptr %7, align 4, !tbaa !14
  %62 = add nsw i32 %61, 1
  store i32 %62, ptr %6, align 4, !tbaa !14
  br label %104

63:                                               ; preds = %15
  %64 = load i32, ptr %7, align 4, !tbaa !14
  %65 = load i32, ptr %6, align 4, !tbaa !14
  %66 = icmp eq i32 %64, %65
  br i1 %66, label %67, label %85

67:                                               ; preds = %63
  %68 = load i8, ptr %9, align 1, !tbaa !33
  %69 = sext i8 %68 to i32
  %70 = icmp sle i32 97, %69
  br i1 %70, label %71, label %75

71:                                               ; preds = %67
  %72 = load i8, ptr %9, align 1, !tbaa !33
  %73 = sext i8 %72 to i32
  %74 = icmp sle i32 %73, 122
  br i1 %74, label %84, label %75

75:                                               ; preds = %71, %67
  %76 = load i8, ptr %9, align 1, !tbaa !33
  %77 = sext i8 %76 to i32
  %78 = icmp sle i32 65, %77
  br i1 %78, label %79, label %83

79:                                               ; preds = %75
  %80 = load i8, ptr %9, align 1, !tbaa !33
  %81 = sext i8 %80 to i32
  %82 = icmp sle i32 %81, 90
  br i1 %82, label %84, label %83

83:                                               ; preds = %79, %75
  store i8 0, ptr %3, align 1
  store i32 1, ptr %8, align 4
  br label %105

84:                                               ; preds = %79, %71
  br label %103

85:                                               ; preds = %63
  %86 = load i8, ptr %9, align 1, !tbaa !33
  %87 = sext i8 %86 to i32
  %88 = icmp sle i32 %87, 32
  br i1 %88, label %89, label %102

89:                                               ; preds = %85
  %90 = load i8, ptr %9, align 1, !tbaa !33
  %91 = sext i8 %90 to i32
  %92 = icmp sge i32 %91, 28
  br i1 %92, label %101, label %93

93:                                               ; preds = %89
  %94 = load i8, ptr %9, align 1, !tbaa !33
  %95 = sext i8 %94 to i32
  %96 = icmp sle i32 9, %95
  br i1 %96, label %97, label %102

97:                                               ; preds = %93
  %98 = load i8, ptr %9, align 1, !tbaa !33
  %99 = sext i8 %98 to i32
  %100 = icmp sle i32 %99, 13
  br i1 %100, label %101, label %102

101:                                              ; preds = %97, %89
  store i8 0, ptr %3, align 1
  store i32 1, ptr %8, align 4
  br label %105

102:                                              ; preds = %97, %93, %85
  br label %103

103:                                              ; preds = %102, %84
  br label %104

104:                                              ; preds = %103, %60
  store i32 0, ptr %8, align 4
  br label %105

105:                                              ; preds = %104, %101, %83, %58
  call void @llvm.lifetime.end.p0(i64 1, ptr %9) #13
  %106 = load i32, ptr %8, align 4
  switch i32 %106, label %111 [
    i32 0, label %107
  ]

107:                                              ; preds = %105
  br label %108

108:                                              ; preds = %107
  %109 = load i32, ptr %7, align 4, !tbaa !14
  %110 = add nsw i32 %109, 1
  store i32 %110, ptr %7, align 4, !tbaa !14
  br label %10, !llvm.loop !64

111:                                              ; preds = %105, %14
  call void @llvm.lifetime.end.p0(i64 4, ptr %7) #13
  %112 = load i32, ptr %8, align 4
  switch i32 %112, label %114 [
    i32 2, label %113
  ]

113:                                              ; preds = %111
  store i8 1, ptr %3, align 1
  store i32 1, ptr %8, align 4
  br label %114

114:                                              ; preds = %113, %111
  call void @llvm.lifetime.end.p0(i64 4, ptr %6) #13
  %115 = load i8, ptr %3, align 1
  ret i8 %115
}