; Function Attrs: mustprogress nofree norecurse nosync nounwind willreturn memory(argmem: read) uwtable
define internal fastcc noundef signext range(i8 0, 2) i8 @_ZN6icu_77L13isASCIIOkBiDiEPKci(ptr noundef readonly captures(none) %0, i32 noundef range(i32 1, -2147483648) %1) unnamed_addr #13 {
  %wide.trip.count = zext nneg i32 %1 to i64
  br label %3

3:                                                ; preds = %2, %30
  %indvars.iv = phi i64 [ 0, %2 ], [ %indvars.iv.next, %30 ]
  %.04860 = phi i32 [ 0, %2 ], [ %.2, %30 ]
  %4 = getelementptr inbounds nuw i8, ptr %0, i64 %indvars.iv
  %5 = load i8, ptr %4, align 1, !tbaa !17
  %6 = icmp eq i8 %5, 46
  br i1 %6, label %7, label %19

7:                                                ; preds = %3
  %8 = sext i32 %.04860 to i64
  %9 = icmp sgt i64 %indvars.iv, %8
  br i1 %9, label %10, label %16

10:                                               ; preds = %7
  %11 = getelementptr i8, ptr %4, i64 -1
  %12 = load i8, ptr %11, align 1, !tbaa !17
  %13 = and i8 %12, -33
  %14 = add i8 %13, -65
  %or.cond54 = icmp ult i8 %14, 26
  %15 = add i8 %12, -48
  %or.cond9 = icmp ult i8 %15, 10
  %or.cond55 = or i1 %or.cond9, %or.cond54
  br i1 %or.cond55, label %16, label %.thread

16:                                               ; preds = %10, %7
  %17 = trunc i64 %indvars.iv to i32
  %18 = add i32 %17, 1
  br label %30

19:                                               ; preds = %3
  %20 = zext i32 %.04860 to i64
  %21 = icmp eq i64 %indvars.iv, %20
  br i1 %21, label %22, label %25

22:                                               ; preds = %19
  %23 = and i8 %5, -33
  %24 = add i8 %23, -65
  %or.cond56 = icmp ult i8 %24, 26
  br i1 %or.cond56, label %30, label %.thread

25:                                               ; preds = %19
  %26 = icmp slt i8 %5, 33
  br i1 %26, label %27, label %30

27:                                               ; preds = %25
  %28 = icmp sgt i8 %5, 27
  %29 = add i8 %5, -9
  %or.cond18 = icmp ult i8 %29, 5
  %or.cond57 = or i1 %28, %or.cond18
  br i1 %or.cond57, label %.thread, label %30

30:                                               ; preds = %27, %22, %25, %16
  %.2 = phi i32 [ %18, %16 ], [ %.04860, %22 ], [ %.04860, %25 ], [ %.04860, %27 ]
  %indvars.iv.next = add nuw nsw i64 %indvars.iv, 1
  %exitcond.not = icmp eq i64 %indvars.iv.next, %wide.trip.count
  br i1 %exitcond.not, label %.thread, label %3, !llvm.loop !39

.thread:                                          ; preds = %27, %22, %10, %30
  %.not.lcssa = phi i8 [ 0, %27 ], [ 0, %22 ], [ 0, %10 ], [ 1, %30 ]
  ret i8 %.not.lcssa
}